; Function Attrs: nounwind uwtable
define void @Llb_ManCutNodes_rec(ptr noundef %0, ptr noundef %1, ptr noundef %2) local_unnamed_addr #0 {
  %4 = getelementptr i8, ptr %0, i64 312
  %.val12 = load i32, ptr %4, align 8, !tbaa !14
  %5 = getelementptr i8, ptr %1, i64 32
  %.val13 = load i32, ptr %5, align 8, !tbaa !28
  %.not = icmp eq i32 %.val13, %.val12
  br i1 %.not, label %46, label %6

6:                                                ; preds = %3
  store i32 %.val12, ptr %5, align 8, !tbaa !28
  %7 = getelementptr i8, ptr %1, i64 8
  %.val14 = load ptr, ptr %7, align 8, !tbaa !31
  %8 = ptrtoint ptr %.val14 to i64
  %9 = and i64 %8, -2
  %10 = inttoptr i64 %9 to ptr
  tail call void @Llb_ManCutNodes_rec(ptr noundef nonnull %0, ptr noundef %10, ptr noundef %2)
  %11 = getelementptr i8, ptr %1, i64 16
  %.val15 = load ptr, ptr %11, align 8, !tbaa !32
  %12 = ptrtoint ptr %.val15 to i64
  %13 = and i64 %12, -2
  %14 = inttoptr i64 %13 to ptr
  tail call void @Llb_ManCutNodes_rec(ptr noundef nonnull %0, ptr noundef %14, ptr noundef %2)
  %15 = getelementptr inbounds nuw i8, ptr %2, i64 4
  %16 = load i32, ptr %15, align 4, !tbaa !10
  %17 = load i32, ptr %2, align 8, !tbaa !3
  %18 = icmp eq i32 %16, %17
  br i1 %18, label %19, label %.Vec_PtrGrow.exit11_crit_edge.i

.Vec_PtrGrow.exit11_crit_edge.i:                  ; preds = %6
  %.phi.trans.insert.i = getelementptr inbounds nuw i8, ptr %2, i64 8
  %.pre.i = load ptr, ptr %.phi.trans.insert.i, align 8, !tbaa !9
  br label %Vec_PtrPush.exit

19:                                               ; preds = %6
  %20 = icmp slt i32 %16, 16
  br i1 %20, label %21, label %29

21:                                               ; preds = %19
  %22 = getelementptr inbounds nuw i8, ptr %2, i64 8
  %23 = load ptr, ptr %22, align 8, !tbaa !9
  %.not9.i.i = icmp eq ptr %23, null
  br i1 %.not9.i.i, label %26, label %24

24:                                               ; preds = %21
  %25 = tail call dereferenceable_or_null(128) ptr @realloc(ptr noundef nonnull %23, i64 noundef 128) #21
  br label %Vec_PtrGrow.exit.i

26:                                               ; preds = %21
  %27 = tail call noalias dereferenceable_or_null(128) ptr @malloc(i64 noundef 128) #20
  br label %Vec_PtrGrow.exit.i

Vec_PtrGrow.exit.i:                               ; preds = %26, %24
  %28 = phi ptr [ %25, %24 ], [ %27, %26 ]
  store ptr %28, ptr %22, align 8, !tbaa !9
  store i32 16, ptr %2, align 8, !tbaa !3
  br label %Vec_PtrPush.exit

29:                                               ; preds = %19
  %30 = shl nuw nsw i32 %16, 1
  %31 = getelementptr inbounds nuw i8, ptr %2, i64 8
  %32 = load ptr, ptr %31, align 8, !tbaa !9
  %.not9.i10.i = icmp eq ptr %32, null
  %33 = zext nneg i32 %30 to i64
  %34 = shl nuw nsw i64 %33, 3
  br i1 %.not9.i10.i, label %37, label %35

35:                                               ; preds = %29
  %36 = tail call ptr @realloc(ptr noundef nonnull %32, i64 noundef %34) #21
  br label %39

37:                                               ; preds = %29
  %38 = tail call noalias ptr @malloc(i64 noundef %34) #20
  br label %39

39:                                               ; preds = %37, %35
  %40 = phi ptr [ %36, %35 ], [ %38, %37 ]
  store ptr %40, ptr %31, align 8, !tbaa !9
  store i32 %30, ptr %2, align 8, !tbaa !3
  br label %Vec_PtrPush.exit

Vec_PtrPush.exit:                                 ; preds = %.Vec_PtrGrow.exit11_crit_edge.i, %Vec_PtrGrow.exit.i, %39
  %41 = phi ptr [ %.pre.i, %.Vec_PtrGrow.exit11_crit_edge.i ], [ %40, %39 ], [ %28, %Vec_PtrGrow.exit.i ]
  %42 = load i32, ptr %15, align 4, !tbaa !10
  %43 = add nsw i32 %42, 1
  store i32 %43, ptr %15, align 4, !tbaa !10
  %44 = sext i32 %42 to i64
  %45 = getelementptr inbounds ptr, ptr %41, i64 %44
  store ptr %1, ptr %45, align 8, !tbaa !11
  br label %46

46:                                               ; preds = %3, %Vec_PtrPush.exit
  ret void
}